target datalayout = "e-m:e-p270:32:32-p271:32:32-p272:64:64-i64:64-i128:128-f80:128-n8:16:32:64-S128"
target triple = "x86_64-pc-linux-gnu"

%struct.magic_set = type { [2 x ptr], %struct.cont, %struct.out, i32, i32, i32, i32, i32, ptr, i64, i32, %struct.anon, %union.VALUETYPE, i16, i16, i16, i16, i16, i16, i64, i64, i64 }
%struct.cont = type { i64, ptr }
%struct.out = type { ptr, i64, ptr }
%struct.anon = type { ptr, i64, i64, i64 }
%union.VALUETYPE = type { [2 x i64], [112 x i8] }

; Function Attrs: nounwind uwtable
define hidden ptr @file_printable(ptr noundef %0, ptr noundef %1, i64 noundef %2, ptr noundef %3, i64 noundef %4) #0 {
  %6 = alloca ptr, align 8
  %7 = alloca ptr, align 8
  %8 = alloca i64, align 8
  %9 = alloca ptr, align 8
  %10 = alloca i64, align 8
  %11 = alloca ptr, align 8
  %12 = alloca ptr, align 8
  %13 = alloca ptr, align 8
  %14 = alloca ptr, align 8
  store ptr %0, ptr %6, align 8
  store ptr %1, ptr %7, align 8
  store i64 %2, ptr %8, align 8
  store ptr %3, ptr %9, align 8
  store i64 %4, ptr %10, align 8
  %15 = load ptr, ptr %7, align 8
  %16 = load i64, ptr %8, align 8
  %17 = getelementptr inbounds i8, ptr %15, i64 %16
  %18 = getelementptr inbounds i8, ptr %17, i64 -1
  store ptr %18, ptr %12, align 8
  %19 = load ptr, ptr %9, align 8
  %20 = ptrtoint ptr %19 to i64
  %21 = inttoptr i64 %20 to ptr
  store ptr %21, ptr %13, align 8
  %22 = load ptr, ptr %13, align 8
  %23 = load i64, ptr %10, align 8
  %24 = getelementptr inbounds i8, ptr %22, i64 %23
  store ptr %24, ptr %14, align 8
  %25 = load ptr, ptr %7, align 8
  store ptr %25, ptr %11, align 8
  br label %26

26:                                               ; preds = %100, %5
  %27 = load ptr, ptr %11, align 8
  %28 = load ptr, ptr %12, align 8
  %29 = icmp ult ptr %27, %28
  br i1 %29, label %30, label %39

30:                                               ; preds = %26
  %31 = load ptr, ptr %13, align 8
  %32 = load ptr, ptr %14, align 8
  %33 = icmp ult ptr %31, %32
  br i1 %33, label %34, label %39

34:                                               ; preds = %30
  %35 = load ptr, ptr %13, align 8
  %36 = load i8, ptr %35, align 1
  %37 = zext i8 %36 to i32
  %38 = icmp ne i32 %37, 0
  br label %39

39:                                               ; preds = %34, %30, %26
  %40 = phi i1 [ false, %30 ], [ false, %26 ], [ %38, %34 ]
  br i1 %40, label %41, label %103

41:                                               ; preds = %39
  %42 = load ptr, ptr %6, align 8
  %43 = getelementptr inbounds %struct.magic_set, ptr %42, i32 0, i32 6
  %44 = load i32, ptr %43, align 4
  %45 = and i32 %44, 256
  %46 = icmp ne i32 %45, 0
  br i1 %46, label %59, label %47

47:                                               ; preds = %41
  %48 = call ptr @__ctype_b_loc() #12
  %49 = load ptr, ptr %48, align 8
  %50 = load ptr, ptr %13, align 8
  %51 = load i8, ptr %50, align 1
  %52 = zext i8 %51 to i32
  %53 = sext i32 %52 to i64
  %54 = getelementptr inbounds i16, ptr %49, i64 %53
  %55 = load i16, ptr %54, align 2
  %56 = zext i16 %55 to i32
  %57 = and i32 %56, 16384
  %58 = icmp ne i32 %57, 0
  br i1 %58, label %59, label %64

59:                                               ; preds = %47, %41
  %60 = load ptr, ptr %13, align 8
  %61 = load i8, ptr %60, align 1
  %62 = load ptr, ptr %11, align 8
  %63 = getelementptr inbounds i8, ptr %62, i32 1
  store ptr %63, ptr %11, align 8
  store i8 %61, ptr %62, align 1
  br label %100

64:                                               ; preds = %47
  %65 = load ptr, ptr %11, align 8
  %66 = load ptr, ptr %12, align 8
  %67 = getelementptr inbounds i8, ptr %66, i64 -3
  %68 = icmp uge ptr %65, %67
  br i1 %68, label %69, label %70

69:                                               ; preds = %64
  br label %103

70:                                               ; preds = %64
  %71 = load ptr, ptr %11, align 8
  %72 = getelementptr inbounds i8, ptr %71, i32 1
  store ptr %72, ptr %11, align 8
  store i8 92, ptr %71, align 1
  %73 = load ptr, ptr %13, align 8
  %74 = load i8, ptr %73, align 1
  %75 = zext i8 %74 to i32
  %76 = lshr i32 %75, 6
  %77 = and i32 %76, 7
  %78 = add i32 %77, 48
  %79 = trunc i32 %78 to i8
  %80 = load ptr, ptr %11, align 8
  %81 = getelementptr inbounds i8, ptr %80, i32 1
  store ptr %81, ptr %11, align 8
  store i8 %79, ptr %80, align 1
  %82 = load ptr, ptr %13, align 8
  %83 = load i8, ptr %82, align 1
  %84 = zext i8 %83 to i32
  %85 = lshr i32 %84, 3
  %86 = and i32 %85, 7
  %87 = add i32 %86, 48
  %88 = trunc i32 %87 to i8
  %89 = load ptr, ptr %11, align 8
  %90 = getelementptr inbounds i8, ptr %89, i32 1
  store ptr %90, ptr %11, align 8
  store i8 %88, ptr %89, align 1
  %91 = load ptr, ptr %13, align 8
  %92 = load i8, ptr %91, align 1
  %93 = zext i8 %92 to i32
  %94 = lshr i32 %93, 0
  %95 = and i32 %94, 7
  %96 = add i32 %95, 48
  %97 = trunc i32 %96 to i8
  %98 = load ptr, ptr %11, align 8
  %99 = getelementptr inbounds i8, ptr %98, i32 1
  store ptr %99, ptr %11, align 8
  store i8 %97, ptr %98, align 1
  br label %100

100:                                              ; preds = %70, %59
  %101 = load ptr, ptr %13, align 8
  %102 = getelementptr inbounds i8, ptr %101, i32 1
  store ptr %102, ptr %13, align 8
  br label %26

103:                                              ; preds = %69, %39
  %104 = load ptr, ptr %11, align 8
  store i8 0, ptr %104, align 1
  %105 = load ptr, ptr %7, align 8
  ret ptr %105
}