; Function Attrs: nofree nosync nounwind memory(readwrite, inaccessiblemem: none) uwtable
define hidden noundef ptr @file_printable(ptr nocapture noundef readonly %0, ptr noundef returned writeonly %1, i64 noundef %2, ptr noundef readonly %3, i64 noundef %4) local_unnamed_addr #11 {
  %6 = getelementptr inbounds i8, ptr %1, i64 %2
  %7 = getelementptr inbounds i8, ptr %6, i64 -1
  %8 = getelementptr inbounds i8, ptr %3, i64 %4
  %9 = getelementptr inbounds i8, ptr %6, i64 -4
  %10 = icmp ugt ptr %7, %1
  %11 = icmp sgt i64 %4, 0
  %or.cond32 = and i1 %10, %11
  br i1 %or.cond32, label %.lr.ph, label %.critedge

.lr.ph:                                           ; preds = %5
  %12 = getelementptr inbounds i8, ptr %0, i64 68
  br label %13

13:                                               ; preds = %.lr.ph, %43
  %.034 = phi ptr [ %1, %.lr.ph ], [ %.1, %43 ]
  %.02633 = phi ptr [ %3, %.lr.ph ], [ %44, %43 ]
  %14 = load i8, ptr %.02633, align 1
  %.not = icmp eq i8 %14, 0
  br i1 %.not, label %.critedge, label %15

15:                                               ; preds = %13
  %16 = load i32, ptr %12, align 4
  %17 = and i32 %16, 256
  %.not29 = icmp eq i32 %17, 0
  br i1 %.not29, label %18, label %25

18:                                               ; preds = %15
  %19 = tail call ptr @__ctype_b_loc() #18
  %20 = load ptr, ptr %19, align 8
  %21 = zext i8 %14 to i64
  %22 = getelementptr inbounds i16, ptr %20, i64 %21
  %23 = load i16, ptr %22, align 2
  %24 = and i16 %23, 16384
  %.not30 = icmp eq i16 %24, 0
  br i1 %.not30, label %27, label %25

25:                                               ; preds = %18, %15
  %26 = getelementptr inbounds i8, ptr %.034, i64 1
  store i8 %14, ptr %.034, align 1
  br label %43

27:                                               ; preds = %18
  %.not31 = icmp ult ptr %.034, %9
  br i1 %.not31, label %28, label %.critedge

28:                                               ; preds = %27
  %29 = getelementptr inbounds i8, ptr %.034, i64 1
  store i8 92, ptr %.034, align 1
  %30 = load i8, ptr %.02633, align 1
  %31 = lshr i8 %30, 6
  %32 = or disjoint i8 %31, 48
  %33 = getelementptr inbounds i8, ptr %.034, i64 2
  store i8 %32, ptr %29, align 1
  %34 = load i8, ptr %.02633, align 1
  %35 = lshr i8 %34, 3
  %36 = and i8 %35, 7
  %37 = or disjoint i8 %36, 48
  %38 = getelementptr inbounds i8, ptr %.034, i64 3
  store i8 %37, ptr %33, align 1
  %39 = load i8, ptr %.02633, align 1
  %40 = and i8 %39, 7
  %41 = or disjoint i8 %40, 48
  %42 = getelementptr inbounds i8, ptr %.034, i64 4
  store i8 %41, ptr %38, align 1
  br label %43

43:                                               ; preds = %28, %25
  %.1 = phi ptr [ %26, %25 ], [ %42, %28 ]
  %44 = getelementptr inbounds i8, ptr %.02633, i64 1
  %45 = icmp ult ptr %.1, %7
  %46 = icmp ult ptr %44, %8
  %or.cond = select i1 %45, i1 %46, i1 false
  br i1 %or.cond, label %13, label %.critedge

.critedge:                                        ; preds = %13, %27, %43, %5
  %.0.lcssa = phi ptr [ %1, %5 ], [ %.1, %43 ], [ %.034, %27 ], [ %.034, %13 ]
  store i8 0, ptr %.0.lcssa, align 1
  ret ptr %1
}